target datalayout = "e-m:e-p270:32:32-p271:32:32-p272:64:64-i64:64-i128:128-f80:128-n8:16:32:64-S128"
target triple = "x86_64-unknown-linux-gnu"

; Function Attrs: mustprogress nounwind uwtable
define noundef i32 @_ZN6icu_7514SimpleTimeZone13compareToRuleEaaaaaiiNS0_5EModeEaaai(i8 noundef signext %month, i8 noundef signext %monthLen, i8 noundef signext %prevMonthLen, i8 noundef signext %dayOfMonth, i8 noundef signext %dayOfWeek, i32 noundef %millis, i32 noundef %millisDelta, i32 noundef %ruleMode, i8 noundef signext %ruleMonth, i8 noundef signext %ruleDayOfWeek, i8 noundef signext %ruleDay, i32 noundef %ruleMillis) #0 align 2 {
entry:
  %retval = alloca i32, align 4
  %month.addr = alloca i8, align 1
  %monthLen.addr = alloca i8, align 1
  %prevMonthLen.addr = alloca i8, align 1
  %dayOfMonth.addr = alloca i8, align 1
  %dayOfWeek.addr = alloca i8, align 1
  %millis.addr = alloca i32, align 4
  %millisDelta.addr = alloca i32, align 4
  %ruleMode.addr = alloca i32, align 4
  %ruleMonth.addr = alloca i8, align 1
  %ruleDayOfWeek.addr = alloca i8, align 1
  %ruleDay.addr = alloca i8, align 1
  %ruleMillis.addr = alloca i32, align 4
  %ruleDayOfMonth = alloca i32, align 4
  store i8 %month, ptr %month.addr, align 1
  store i8 %monthLen, ptr %monthLen.addr, align 1
  store i8 %prevMonthLen, ptr %prevMonthLen.addr, align 1
  store i8 %dayOfMonth, ptr %dayOfMonth.addr, align 1
  store i8 %dayOfWeek, ptr %dayOfWeek.addr, align 1
  store i32 %millis, ptr %millis.addr, align 4
  store i32 %millisDelta, ptr %millisDelta.addr, align 4
  store i32 %ruleMode, ptr %ruleMode.addr, align 4
  store i8 %ruleMonth, ptr %ruleMonth.addr, align 1
  store i8 %ruleDayOfWeek, ptr %ruleDayOfWeek.addr, align 1
  store i8 %ruleDay, ptr %ruleDay.addr, align 1
  store i32 %ruleMillis, ptr %ruleMillis.addr, align 4
  %0 = load i32, ptr %millisDelta.addr, align 4
  %1 = load i32, ptr %millis.addr, align 4
  %add = add nsw i32 %1, %0
  store i32 %add, ptr %millis.addr, align 4
  br label %while.cond

while.cond:                                       ; preds = %if.end, %entry
  %2 = load i32, ptr %millis.addr, align 4
  %cmp = icmp sge i32 %2, 86400000
  br i1 %cmp, label %while.body, label %while.end

while.body:                                       ; preds = %while.cond
  %3 = load i32, ptr %millis.addr, align 4
  %sub = sub nsw i32 %3, 86400000
  store i32 %sub, ptr %millis.addr, align 4
  %4 = load i8, ptr %dayOfMonth.addr, align 1
  %inc = add i8 %4, 1
  store i8 %inc, ptr %dayOfMonth.addr, align 1
  %5 = load i8, ptr %dayOfWeek.addr, align 1
  %conv = sext i8 %5 to i32
  %rem = srem i32 %conv, 7
  %add1 = add nsw i32 1, %rem
  %conv2 = trunc i32 %add1 to i8
  store i8 %conv2, ptr %dayOfWeek.addr, align 1
  %6 = load i8, ptr %dayOfMonth.addr, align 1
  %conv3 = sext i8 %6 to i32
  %7 = load i8, ptr %monthLen.addr, align 1
  %conv4 = sext i8 %7 to i32
  %cmp5 = icmp sgt i32 %conv3, %conv4
  br i1 %cmp5, label %if.then, label %if.end

if.then:                                          ; preds = %while.body
  store i8 1, ptr %dayOfMonth.addr, align 1
  %8 = load i8, ptr %month.addr, align 1
  %inc6 = add i8 %8, 1
  store i8 %inc6, ptr %month.addr, align 1
  br label %if.end

if.end:                                           ; preds = %if.then, %while.body
  br label %while.cond, !llvm.loop !4

while.end:                                        ; preds = %while.cond
  br label %while.cond7

while.cond7:                                      ; preds = %if.end20, %while.end
  %9 = load i32, ptr %millis.addr, align 4
  %cmp8 = icmp slt i32 %9, 0
  br i1 %cmp8, label %while.body9, label %while.end21

while.body9:                                      ; preds = %while.cond7
  %10 = load i32, ptr %millis.addr, align 4
  %add10 = add nsw i32 %10, 86400000
  store i32 %add10, ptr %millis.addr, align 4
  %11 = load i8, ptr %dayOfMonth.addr, align 1
  %dec = add i8 %11, -1
  store i8 %dec, ptr %dayOfMonth.addr, align 1
  %12 = load i8, ptr %dayOfWeek.addr, align 1
  %conv11 = sext i8 %12 to i32
  %add12 = add nsw i32 %conv11, 5
  %rem13 = srem i32 %add12, 7
  %add14 = add nsw i32 1, %rem13
  %conv15 = trunc i32 %add14 to i8
  store i8 %conv15, ptr %dayOfWeek.addr, align 1
  %13 = load i8, ptr %dayOfMonth.addr, align 1
  %conv16 = sext i8 %13 to i32
  %cmp17 = icmp slt i32 %conv16, 1
  br i1 %cmp17, label %if.then18, label %if.end20

if.then18:                                        ; preds = %while.body9
  %14 = load i8, ptr %prevMonthLen.addr, align 1
  store i8 %14, ptr %dayOfMonth.addr, align 1
  %15 = load i8, ptr %month.addr, align 1
  %dec19 = add i8 %15, -1
  store i8 %dec19, ptr %month.addr, align 1
  br label %if.end20

if.end20:                                         ; preds = %if.then18, %while.body9
  br label %while.cond7, !llvm.loop !6

while.end21:                                      ; preds = %while.cond7
  %16 = load i8, ptr %month.addr, align 1
  %conv22 = sext i8 %16 to i32
  %17 = load i8, ptr %ruleMonth.addr, align 1
  %conv23 = sext i8 %17 to i32
  %cmp24 = icmp slt i32 %conv22, %conv23
  br i1 %cmp24, label %if.then25, label %if.else

if.then25:                                        ; preds = %while.end21
  store i32 -1, ptr %retval, align 4
  br label %return

if.else:                                          ; preds = %while.end21
  %18 = load i8, ptr %month.addr, align 1
  %conv26 = sext i8 %18 to i32
  %19 = load i8, ptr %ruleMonth.addr, align 1
  %conv27 = sext i8 %19 to i32
  %cmp28 = icmp sgt i32 %conv26, %conv27
  br i1 %cmp28, label %if.then29, label %if.end30

if.then29:                                        ; preds = %if.else
  store i32 1, ptr %retval, align 4
  br label %return

if.end30:                                         ; preds = %if.else
  br label %if.end31

if.end31:                                         ; preds = %if.end30
  store i32 0, ptr %ruleDayOfMonth, align 4
  %20 = load i8, ptr %ruleDay.addr, align 1
  %conv32 = sext i8 %20 to i32
  %21 = load i8, ptr %monthLen.addr, align 1
  %conv33 = sext i8 %21 to i32
  %cmp34 = icmp sgt i32 %conv32, %conv33
  br i1 %cmp34, label %if.then35, label %if.end36

if.then35:                                        ; preds = %if.end31
  %22 = load i8, ptr %monthLen.addr, align 1
  store i8 %22, ptr %ruleDay.addr, align 1
  br label %if.end36

if.end36:                                         ; preds = %if.then35, %if.end31
  %23 = load i32, ptr %ruleMode.addr, align 4
  switch i32 %23, label %sw.epilog [
    i32 1, label %sw.bb
    i32 2, label %sw.bb38
    i32 3, label %sw.bb71
    i32 4, label %sw.bb83
  ]

sw.bb:                                            ; preds = %if.end36
  %24 = load i8, ptr %ruleDay.addr, align 1
  %conv37 = sext i8 %24 to i32
  store i32 %conv37, ptr %ruleDayOfMonth, align 4
  br label %sw.epilog

sw.bb38:                                          ; preds = %if.end36
  %25 = load i8, ptr %ruleDay.addr, align 1
  %conv39 = sext i8 %25 to i32
  %cmp40 = icmp sgt i32 %conv39, 0
  br i1 %cmp40, label %if.then41, label %if.else54

if.then41:                                        ; preds = %sw.bb38
  %26 = load i8, ptr %ruleDay.addr, align 1
  %conv42 = sext i8 %26 to i32
  %sub43 = sub nsw i32 %conv42, 1
  %mul = mul nsw i32 %sub43, 7
  %add44 = add nsw i32 1, %mul
  %27 = load i8, ptr %ruleDayOfWeek.addr, align 1
  %conv45 = sext i8 %27 to i32
  %add46 = add nsw i32 7, %conv45
  %28 = load i8, ptr %dayOfWeek.addr, align 1
  %conv47 = sext i8 %28 to i32
  %29 = load i8, ptr %dayOfMonth.addr, align 1
  %conv48 = sext i8 %29 to i32
  %sub49 = sub nsw i32 %conv47, %conv48
  %add50 = add nsw i32 %sub49, 1
  %sub51 = sub nsw i32 %add46, %add50
  %rem52 = srem i32 %sub51, 7
  %add53 = add nsw i32 %add44, %rem52
  store i32 %add53, ptr %ruleDayOfMonth, align 4
  br label %if.end70

if.else54:                                        ; preds = %sw.bb38
  %30 = load i8, ptr %monthLen.addr, align 1
  %conv55 = sext i8 %30 to i32
  %31 = load i8, ptr %ruleDay.addr, align 1
  %conv56 = sext i8 %31 to i32
  %add57 = add nsw i32 %conv56, 1
  %mul58 = mul nsw i32 %add57, 7
  %add59 = add nsw i32 %conv55, %mul58
  %32 = load i8, ptr %dayOfWeek.addr, align 1
  %conv60 = sext i8 %32 to i32
  %33 = load i8, ptr %monthLen.addr, align 1
  %conv61 = sext i8 %33 to i32
  %add62 = add nsw i32 %conv60, %conv61
  %34 = load i8, ptr %dayOfMonth.addr, align 1
  %conv63 = sext i8 %34 to i32
  %sub64 = sub nsw i32 %add62, %conv63
  %add65 = add nsw i32 7, %sub64
  %35 = load i8, ptr %ruleDayOfWeek.addr, align 1
  %conv66 = sext i8 %35 to i32
  %sub67 = sub nsw i32 %add65, %conv66
  %rem68 = srem i32 %sub67, 7
  %sub69 = sub nsw i32 %add59, %rem68
  store i32 %sub69, ptr %ruleDayOfMonth, align 4
  br label %if.end70

if.end70:                                         ; preds = %if.else54, %if.then41
  br label %sw.epilog

sw.bb71:                                          ; preds = %if.end36
  %36 = load i8, ptr %ruleDay.addr, align 1
  %conv72 = sext i8 %36 to i32
  %37 = load i8, ptr %ruleDayOfWeek.addr, align 1
  %conv73 = sext i8 %37 to i32
  %add74 = add nsw i32 49, %conv73
  %38 = load i8, ptr %ruleDay.addr, align 1
  %conv75 = sext i8 %38 to i32
  %sub76 = sub nsw i32 %add74, %conv75
  %39 = load i8, ptr %dayOfWeek.addr, align 1
  %conv77 = sext i8 %39 to i32
  %sub78 = sub nsw i32 %sub76, %conv77
  %40 = load i8, ptr %dayOfMonth.addr, align 1
  %conv79 = sext i8 %40 to i32
  %add80 = add nsw i32 %sub78, %conv79
  %rem81 = srem i32 %add80, 7
  %add82 = add nsw i32 %conv72, %rem81
  store i32 %add82, ptr %ruleDayOfMonth, align 4
  br label %sw.epilog

sw.bb83:                                          ; preds = %if.end36
  %41 = load i8, ptr %ruleDay.addr, align 1
  %conv84 = sext i8 %41 to i32
  %42 = load i8, ptr %ruleDayOfWeek.addr, align 1
  %conv85 = sext i8 %42 to i32
  %sub86 = sub nsw i32 49, %conv85
  %43 = load i8, ptr %ruleDay.addr, align 1
  %conv87 = sext i8 %43 to i32
  %add88 = add nsw i32 %sub86, %conv87
  %44 = load i8, ptr %dayOfWeek.addr, align 1
  %conv89 = sext i8 %44 to i32
  %add90 = add nsw i32 %add88, %conv89
  %45 = load i8, ptr %dayOfMonth.addr, align 1
  %conv91 = sext i8 %45 to i32
  %sub92 = sub nsw i32 %add90, %conv91
  %rem93 = srem i32 %sub92, 7
  %sub94 = sub nsw i32 %conv84, %rem93
  store i32 %sub94, ptr %ruleDayOfMonth, align 4
  br label %sw.epilog

sw.epilog:                                        ; preds = %sw.bb83, %sw.bb71, %if.end70, %sw.bb, %if.end36
  %46 = load i8, ptr %dayOfMonth.addr, align 1
  %conv95 = sext i8 %46 to i32
  %47 = load i32, ptr %ruleDayOfMonth, align 4
  %cmp96 = icmp slt i32 %conv95, %47
  br i1 %cmp96, label %if.then97, label %if.else98

if.then97:                                        ; preds = %sw.epilog
  store i32 -1, ptr %retval, align 4
  br label %return

if.else98:                                        ; preds = %sw.epilog
  %48 = load i8, ptr %dayOfMonth.addr, align 1
  %conv99 = sext i8 %48 to i32
  %49 = load i32, ptr %ruleDayOfMonth, align 4
  %cmp100 = icmp sgt i32 %conv99, %49
  br i1 %cmp100, label %if.then101, label %if.end102

if.then101:                                       ; preds = %if.else98
  store i32 1, ptr %retval, align 4
  br label %return

if.end102:                                        ; preds = %if.else98
  br label %if.end103

if.end103:                                        ; preds = %if.end102
  %50 = load i32, ptr %millis.addr, align 4
  %51 = load i32, ptr %ruleMillis.addr, align 4
  %cmp104 = icmp slt i32 %50, %51
  br i1 %cmp104, label %if.then105, label %if.else106

if.then105:                                       ; preds = %if.end103
  store i32 -1, ptr %retval, align 4
  br label %return

if.else106:                                       ; preds = %if.end103
  %52 = load i32, ptr %millis.addr, align 4
  %53 = load i32, ptr %ruleMillis.addr, align 4
  %cmp107 = icmp sgt i32 %52, %53
  br i1 %cmp107, label %if.then108, label %if.else109

if.then108:                                       ; preds = %if.else106
  store i32 1, ptr %retval, align 4
  br label %return

if.else109:                                       ; preds = %if.else106
  store i32 0, ptr %retval, align 4
  br label %return

return:                                           ; preds = %if.else109, %if.then108, %if.then105, %if.then101, %if.then97, %if.then29, %if.then25
  %54 = load i32, ptr %retval, align 4
  ret i32 %54
}