; Function Attrs: mustprogress nofree norecurse nosync nounwind willreturn memory(none) uwtable
define noundef i32 @_ZN6icu_7514SimpleTimeZone13compareToRuleEaaaaaiiNS0_5EModeEaaai(i8 noundef signext %month, i8 noundef signext %monthLen, i8 noundef signext %prevMonthLen, i8 noundef signext %dayOfMonth, i8 noundef signext %dayOfWeek, i32 noundef %millis, i32 noundef %millisDelta, i32 noundef %ruleMode, i8 noundef signext %ruleMonth, i8 noundef signext %ruleDayOfWeek, i8 noundef signext %ruleDay, i32 noundef %ruleMillis) local_unnamed_addr #0 align 2 {
entry:
  %add = add nsw i32 %millisDelta, %millis
  %cmp53 = icmp sgt i32 %add, 86399999
  br i1 %cmp53, label %while.body, label %while.cond7.preheader

while.cond7.preheader:                            ; preds = %entry
  %cmp861 = icmp slt i32 %add, 0
  br i1 %cmp861, label %while.body9, label %while.end21

while.body:                                       ; preds = %entry, %while.body
  %month.addr.057 = phi i8 [ %spec.select42, %while.body ], [ %month, %entry ]
  %dayOfMonth.addr.056 = phi i8 [ %spec.select, %while.body ], [ %dayOfMonth, %entry ]
  %dayOfWeek.addr.055 = phi i8 [ %conv2, %while.body ], [ %dayOfWeek, %entry ]
  %millis.addr.054 = phi i32 [ %sub, %while.body ], [ %add, %entry ]
  %sub = add nsw i32 %millis.addr.054, -86400000
  %inc = add i8 %dayOfMonth.addr.056, 1
  %rem46 = srem i8 %dayOfWeek.addr.055, 7
  %conv2 = add nsw i8 %rem46, 1
  %cmp5 = icmp sgt i8 %inc, %monthLen
  %spec.select = select i1 %cmp5, i8 1, i8 %inc
  %inc6 = zext i1 %cmp5 to i8
  %spec.select42 = add i8 %month.addr.057, %inc6
  %cmp = icmp ugt i32 %millis.addr.054, 172799999
  br i1 %cmp, label %while.body, label %while.end21, !llvm.loop !5

while.body9:                                      ; preds = %while.cond7.preheader, %while.body9
  %month.addr.265 = phi i8 [ %spec.select44, %while.body9 ], [ %month, %while.cond7.preheader ]
  %dayOfMonth.addr.264 = phi i8 [ %spec.select43, %while.body9 ], [ %dayOfMonth, %while.cond7.preheader ]
  %dayOfWeek.addr.163 = phi i8 [ %conv15, %while.body9 ], [ %dayOfWeek, %while.cond7.preheader ]
  %millis.addr.162 = phi i32 [ %add10, %while.body9 ], [ %add, %while.cond7.preheader ]
  %add10 = add nsw i32 %millis.addr.162, 86400000
  %dec = add i8 %dayOfMonth.addr.264, -1
  %conv11 = sext i8 %dayOfWeek.addr.163 to i16
  %add12 = add nsw i16 %conv11, 5
  %rem1347 = srem i16 %add12, 7
  %0 = trunc i16 %rem1347 to i8
  %conv15 = add nsw i8 %0, 1
  %cmp17 = icmp slt i8 %dec, 1
  %spec.select43 = select i1 %cmp17, i8 %prevMonthLen, i8 %dec
  %dec19 = sext i1 %cmp17 to i8
  %spec.select44 = add i8 %month.addr.265, %dec19
  %cmp8 = icmp ult i32 %millis.addr.162, -86400000
  br i1 %cmp8, label %while.body9, label %while.end21, !llvm.loop !7

while.end21:                                      ; preds = %while.body9, %while.body, %while.cond7.preheader
  %millis.addr.1.lcssa = phi i32 [ %add, %while.cond7.preheader ], [ %sub, %while.body ], [ %add10, %while.body9 ]
  %dayOfWeek.addr.1.lcssa = phi i8 [ %dayOfWeek, %while.cond7.preheader ], [ %conv2, %while.body ], [ %conv15, %while.body9 ]
  %dayOfMonth.addr.2.lcssa = phi i8 [ %dayOfMonth, %while.cond7.preheader ], [ %spec.select, %while.body ], [ %spec.select43, %while.body9 ]
  %month.addr.2.lcssa = phi i8 [ %month, %while.cond7.preheader ], [ %spec.select42, %while.body ], [ %spec.select44, %while.body9 ]
  %cmp24 = icmp slt i8 %month.addr.2.lcssa, %ruleMonth
  br i1 %cmp24, label %return, label %if.else

if.else:                                          ; preds = %while.end21
  %cmp28 = icmp sgt i8 %month.addr.2.lcssa, %ruleMonth
  br i1 %cmp28, label %return, label %if.end31

if.end31:                                         ; preds = %if.else
  %conv33 = sext i8 %monthLen to i32
  %spec.select45 = tail call i8 @llvm.smin.i8(i8 %ruleDay, i8 %monthLen)
  switch i32 %ruleMode, label %sw.epilog [
    i32 1, label %sw.bb
    i32 2, label %sw.bb38
    i32 3, label %sw.bb71
    i32 4, label %sw.bb83
  ]

sw.bb:                                            ; preds = %if.end31
  %conv37 = sext i8 %spec.select45 to i32
  br label %sw.epilog

sw.bb38:                                          ; preds = %if.end31
  %conv39 = sext i8 %spec.select45 to i32
  %cmp40 = icmp sgt i8 %spec.select45, 0
  %1 = mul nsw i32 %conv39, 7
  br i1 %cmp40, label %if.then41, label %if.else54

if.then41:                                        ; preds = %sw.bb38
  %add44 = add nsw i32 %1, -6
  %conv45 = sext i8 %ruleDayOfWeek to i16
  %conv48 = sext i8 %dayOfMonth.addr.2.lcssa to i16
  %2 = xor i8 %dayOfWeek.addr.1.lcssa, -1
  %3 = sext i8 %2 to i16
  %add50.neg = add nsw i16 %conv45, 7
  %add46 = add nsw i16 %add50.neg, %3
  %sub51 = add nsw i16 %add46, %conv48
  %rem5248 = srem i16 %sub51, 7
  %rem52.sext = sext i16 %rem5248 to i32
  %add53 = add nsw i32 %add44, %rem52.sext
  br label %sw.epilog

if.else54:                                        ; preds = %sw.bb38
  %conv60 = sext i8 %dayOfWeek.addr.1.lcssa to i32
  %conv63 = sext i8 %dayOfMonth.addr.2.lcssa to i32
  %conv66 = sext i8 %ruleDayOfWeek to i32
  %.neg52 = add nsw i32 %conv33, 7
  %4 = add nsw i32 %.neg52, %conv60
  %5 = add nsw i32 %conv66, %conv63
  %sub67 = sub nsw i32 %4, %5
  %rem68.lhs.trunc = trunc i32 %sub67 to i16
  %rem6849 = srem i16 %rem68.lhs.trunc, 7
  %narrow = sub nsw i16 0, %rem6849
  %rem68.sext.neg = sext i16 %narrow to i32
  %add59 = add nsw i32 %.neg52, %1
  %sub69 = add nsw i32 %add59, %rem68.sext.neg
  br label %sw.epilog

sw.bb71:                                          ; preds = %if.end31
  %conv72 = sext i8 %spec.select45 to i32
  %conv73 = sext i8 %ruleDayOfWeek to i32
  %conv77 = sext i8 %dayOfWeek.addr.1.lcssa to i32
  %conv79 = sext i8 %dayOfMonth.addr.2.lcssa to i32
  %.neg = add nsw i32 %conv73, 49
  %6 = add nsw i32 %conv72, %conv77
  %sub78 = sub nsw i32 %.neg, %6
  %add80 = add nsw i32 %sub78, %conv79
  %rem81.lhs.trunc = trunc i32 %add80 to i16
  %rem8150 = srem i16 %rem81.lhs.trunc, 7
  %rem81.sext = sext i16 %rem8150 to i32
  %add82 = add nsw i32 %rem81.sext, %conv72
  br label %sw.epilog

sw.bb83:                                          ; preds = %if.end31
  %conv84 = sext i8 %spec.select45 to i32
  %conv85 = sext i8 %ruleDayOfWeek to i32
  %conv89 = sext i8 %dayOfWeek.addr.1.lcssa to i32
  %conv91 = sext i8 %dayOfMonth.addr.2.lcssa to i32
  %reass.sub70 = sub nsw i32 %conv84, %conv85
  %add88 = add nsw i32 %reass.sub70, 49
  %add90 = add nsw i32 %add88, %conv89
  %sub92 = sub nsw i32 %add90, %conv91
  %rem93.lhs.trunc = trunc i32 %sub92 to i16
  %rem9351 = srem i16 %rem93.lhs.trunc, 7
  %rem93.sext = sext i16 %rem9351 to i32
  %sub94 = sub nsw i32 %conv84, %rem93.sext
  br label %sw.epilog

sw.epilog:                                        ; preds = %if.then41, %if.else54, %sw.bb83, %sw.bb71, %sw.bb, %if.end31
  %ruleDayOfMonth.0 = phi i32 [ 0, %if.end31 ], [ %sub94, %sw.bb83 ], [ %add82, %sw.bb71 ], [ %add53, %if.then41 ], [ %sub69, %if.else54 ], [ %conv37, %sw.bb ]
  %conv95 = sext i8 %dayOfMonth.addr.2.lcssa to i32
  %cmp96 = icmp sgt i32 %ruleDayOfMonth.0, %conv95
  br i1 %cmp96, label %return, label %if.else98

if.else98:                                        ; preds = %sw.epilog
  %cmp100 = icmp slt i32 %ruleDayOfMonth.0, %conv95
  br i1 %cmp100, label %return, label %if.end103

if.end103:                                        ; preds = %if.else98
  %cmp104 = icmp slt i32 %millis.addr.1.lcssa, %ruleMillis
  br i1 %cmp104, label %return, label %if.else106

if.else106:                                       ; preds = %if.end103
  %cmp107 = icmp sgt i32 %millis.addr.1.lcssa, %ruleMillis
  %. = zext i1 %cmp107 to i32
  br label %return

return:                                           ; preds = %if.else106, %if.end103, %if.else98, %sw.epilog, %if.else, %while.end21
  %retval.0 = phi i32 [ -1, %while.end21 ], [ 1, %if.else ], [ -1, %sw.epilog ], [ 1, %if.else98 ], [ -1, %if.end103 ], [ %., %if.else106 ]
  ret i32 %retval.0
}